target datalayout = "e-m:e-p270:32:32-p271:32:32-p272:64:64-i64:64-i128:128-f80:128-n8:16:32:64-S128"
target triple = "x86_64-unknown-linux-gnu"

@.str = private unnamed_addr constant [21 x i8] c"../qemu/util/async.c\00", align 1
@.str.11 = private unnamed_addr constant [17 x i8] c"callback == NULL\00", align 1
@__PRETTY_FUNCTION__.aio_ctx_dispatch = private unnamed_addr constant [60 x i8] c"gboolean aio_ctx_dispatch(GSource *, GSourceFunc, gpointer)\00", align 1

; Function Attrs: nounwind sspstrong uwtable
define internal i32 @aio_ctx_dispatch(ptr noundef %source, ptr noundef %callback, ptr noundef %user_data) #0 {
entry:
  %source.addr = alloca ptr, align 8
  %callback.addr = alloca ptr, align 8
  %user_data.addr = alloca ptr, align 8
  %ctx = alloca ptr, align 8
  store ptr %source, ptr %source.addr, align 8
  store ptr %callback, ptr %callback.addr, align 8
  store ptr %user_data, ptr %user_data.addr, align 8
  %0 = load ptr, ptr %source.addr, align 8
  store ptr %0, ptr %ctx, align 8
  %1 = load ptr, ptr %callback.addr, align 8
  %cmp = icmp eq ptr %1, null
  br i1 %cmp, label %if.then, label %if.else

if.then:                                          ; preds = %entry
  br label %if.end

if.else:                                          ; preds = %entry
  call void @__assert_fail(ptr noundef @.str.11, ptr noundef @.str, i32 noundef 357, ptr noundef @__PRETTY_FUNCTION__.aio_ctx_dispatch) #12
  unreachable

if.end:                                           ; preds = %if.then
  %2 = load ptr, ptr %ctx, align 8
  call void @aio_dispatch(ptr noundef %2)
  ret i32 1
}