; Function Attrs: nounwind sspstrong uwtable
define internal noundef i32 @aio_ctx_dispatch(ptr noundef %source, ptr noundef readnone %callback, ptr readnone captures(none) %user_data) #0 {
entry:
  %cmp = icmp eq ptr %callback, null
  br i1 %cmp, label %if.end, label %if.else

if.else:                                          ; preds = %entry
  tail call void @__assert_fail(ptr noundef nonnull @.str.11, ptr noundef nonnull @.str, i32 noundef 357, ptr noundef nonnull @__PRETTY_FUNCTION__.aio_ctx_dispatch) #14
  unreachable

if.end:                                           ; preds = %entry
  tail call void @aio_dispatch(ptr noundef %source) #13
  ret i32 1
}